; Function Attrs: nofree norecurse nosync nounwind memory(readwrite, argmem: read, inaccessiblemem: none) uwtable
define void @Abc_TtCofactorTest10(ptr noundef readonly captures(none) %0, i32 noundef %1, i32 noundef %2) local_unnamed_addr #5 {
  %4 = add i32 %1, -1
  %5 = icmp sgt i32 %1, 1
  br i1 %5, label %.lr.ph, label %._crit_edge

.lr.ph:                                           ; preds = %3
  %6 = icmp samesign ult i32 %1, 7
  %7 = add nsw i32 %1, -6
  %8 = shl nuw i32 1, %7
  %9 = select i1 %6, i32 1, i32 %8
  %10 = icmp sgt i32 %9, 0
  %wide.trip.count24.i = zext nneg i32 %9 to i64
  %11 = getelementptr inbounds nuw i64, ptr @Abc_TtCofactorTest10.pCopy1, i64 %wide.trip.count24.i
  br i1 %10, label %.lr.ph18.preheader.i.us.preheader, label %Abc_TtCopy.exit18

.lr.ph18.preheader.i.us.preheader:                ; preds = %.lr.ph
  %wide.trip.count = zext nneg i32 %4 to i64
  br label %.lr.ph18.preheader.i.us

.lr.ph18.preheader.i.us:                          ; preds = %.lr.ph18.preheader.i.us.preheader, %Abc_TtCopy.exit18.loopexit.us
  %indvars.iv = phi i64 [ 0, %.lr.ph18.preheader.i.us.preheader ], [ %indvars.iv.next, %Abc_TtCopy.exit18.loopexit.us ]
  br label %.lr.ph18.i.us

.lr.ph18.i.us:                                    ; preds = %.lr.ph18.i.us, %.lr.ph18.preheader.i.us
  %indvars.iv21.i.us = phi i64 [ 0, %.lr.ph18.preheader.i.us ], [ %indvars.iv.next22.i.us, %.lr.ph18.i.us ]
  %12 = getelementptr inbounds nuw i64, ptr %0, i64 %indvars.iv21.i.us
  %13 = load i64, ptr %12, align 8, !tbaa !3
  %14 = getelementptr inbounds nuw i64, ptr @Abc_TtCofactorTest10.pCopy1, i64 %indvars.iv21.i.us
  store i64 %13, ptr %14, align 8, !tbaa !3
  %indvars.iv.next22.i.us = add nuw nsw i64 %indvars.iv21.i.us, 1
  %exitcond25.not.i.us = icmp eq i64 %indvars.iv.next22.i.us, %wide.trip.count24.i
  br i1 %exitcond25.not.i.us, label %Abc_TtCopy.exit.us, label %.lr.ph18.i.us, !llvm.loop !23

Abc_TtCopy.exit.us:                               ; preds = %.lr.ph18.i.us
  %15 = icmp samesign ult i64 %indvars.iv, 5
  br i1 %15, label %.lr.ph64.i.us, label %16

16:                                               ; preds = %Abc_TtCopy.exit.us
  %17 = icmp eq i64 %indvars.iv, 5
  br i1 %17, label %.lr.ph.i.us, label %.preheader.lr.ph.i.us

.preheader.lr.ph.i.us:                            ; preds = %16
  %18 = icmp samesign ult i64 %indvars.iv, 7
  %19 = trunc i64 %indvars.iv to i32
  %20 = add i32 %19, -6
  %21 = shl nuw i32 1, %20
  %22 = select i1 %18, i32 1, i32 %21
  %23 = icmp sgt i32 %22, 0
  %24 = shl nsw i32 %22, 2
  %25 = sext i32 %24 to i64
  br i1 %23, label %.preheader.us.preheader.i.us, label %.lr.ph18.i14.us.preheader

.preheader.us.preheader.i.us:                     ; preds = %.preheader.lr.ph.i.us
  %26 = shl nuw nsw i32 %22, 1
  %27 = zext nneg i32 %22 to i64
  %28 = zext nneg i32 %26 to i64
  br label %.preheader.us.i.us

.preheader.us.i.us:                               ; preds = %._crit_edge.us.i.us, %.preheader.us.preheader.i.us
  %.061.us.i.us = phi ptr [ %32, %._crit_edge.us.i.us ], [ @Abc_TtCofactorTest10.pCopy1, %.preheader.us.preheader.i.us ]
  %invariant.gep.i.us = getelementptr inbounds nuw i64, ptr %.061.us.i.us, i64 %27
  %invariant.gep76.i.us = getelementptr inbounds nuw i64, ptr %.061.us.i.us, i64 %28
  br label %29

29:                                               ; preds = %29, %.preheader.us.i.us
  %indvars.iv.i.us = phi i64 [ 0, %.preheader.us.i.us ], [ %indvars.iv.next.i.us, %29 ]
  %gep.i.us = getelementptr inbounds nuw i64, ptr %invariant.gep.i.us, i64 %indvars.iv.i.us
  %30 = load i64, ptr %gep.i.us, align 8, !tbaa !3
  %gep77.i.us = getelementptr inbounds nuw i64, ptr %invariant.gep76.i.us, i64 %indvars.iv.i.us
  %31 = load i64, ptr %gep77.i.us, align 8, !tbaa !3
  store i64 %31, ptr %gep.i.us, align 8, !tbaa !3
  store i64 %30, ptr %gep77.i.us, align 8, !tbaa !3
  %indvars.iv.next.i.us = add nuw nsw i64 %indvars.iv.i.us, 1
  %exitcond.not.i.us = icmp eq i64 %indvars.iv.next.i.us, %27
  br i1 %exitcond.not.i.us, label %._crit_edge.us.i.us, label %29, !llvm.loop !24

._crit_edge.us.i.us:                              ; preds = %29
  %32 = getelementptr inbounds nuw i64, ptr %.061.us.i.us, i64 %25
  %33 = icmp ult ptr %32, %11
  br i1 %33, label %.preheader.us.i.us, label %.lr.ph18.i14.us.preheader, !llvm.loop !25

.lr.ph.i.us:                                      ; preds = %16, %.lr.ph.i.us
  %.05462.i.us = phi ptr [ %38, %.lr.ph.i.us ], [ @Abc_TtCofactorTest10.pCopy1, %16 ]
  %34 = getelementptr inbounds nuw i8, ptr %.05462.i.us, i64 4
  %35 = load i32, ptr %34, align 4, !tbaa !10
  %36 = getelementptr inbounds nuw i8, ptr %.05462.i.us, i64 8
  %37 = load i32, ptr %36, align 4, !tbaa !10
  store i32 %37, ptr %34, align 4, !tbaa !10
  store i32 %35, ptr %36, align 4, !tbaa !10
  %38 = getelementptr inbounds nuw i8, ptr %.05462.i.us, i64 16
  %39 = icmp ult ptr %38, %11
  br i1 %39, label %.lr.ph.i.us, label %.lr.ph18.i14.us.preheader, !llvm.loop !26

.lr.ph64.i.us:                                    ; preds = %Abc_TtCopy.exit.us
  %40 = trunc nuw nsw i64 %indvars.iv to i32
  %41 = shl nuw nsw i32 1, %40
  %42 = getelementptr inbounds nuw [5 x [3 x i64]], ptr @s_PMasks, i64 0, i64 %indvars.iv
  %43 = load i64, ptr %42, align 8, !tbaa !3
  %44 = getelementptr inbounds nuw i8, ptr %42, i64 8
  %45 = load i64, ptr %44, align 8, !tbaa !3
  %46 = zext nneg i32 %41 to i64
  %47 = getelementptr inbounds nuw i8, ptr %42, i64 16
  %48 = load i64, ptr %47, align 8, !tbaa !3
  br label %49

49:                                               ; preds = %49, %.lr.ph64.i.us
  %indvars.iv69.i.us = phi i64 [ 0, %.lr.ph64.i.us ], [ %indvars.iv.next70.i.us, %49 ]
  %50 = getelementptr inbounds nuw i64, ptr @Abc_TtCofactorTest10.pCopy1, i64 %indvars.iv69.i.us
  %51 = load i64, ptr %50, align 8, !tbaa !3
  %52 = and i64 %51, %43
  %53 = and i64 %51, %45
  %54 = shl i64 %53, %46
  %55 = or i64 %54, %52
  %56 = and i64 %51, %48
  %57 = lshr i64 %56, %46
  %58 = or i64 %55, %57
  store i64 %58, ptr %50, align 8, !tbaa !3
  %indvars.iv.next70.i.us = add nuw nsw i64 %indvars.iv69.i.us, 1
  %exitcond73.not.i.us = icmp eq i64 %indvars.iv.next70.i.us, %wide.trip.count24.i
  br i1 %exitcond73.not.i.us, label %.lr.ph18.i14.us.preheader, label %49, !llvm.loop !27

.lr.ph18.i14.us.preheader:                        ; preds = %._crit_edge.us.i.us, %.lr.ph.i.us, %49, %.preheader.lr.ph.i.us
  br label %.lr.ph18.i14.us

.lr.ph18.i14.us:                                  ; preds = %.lr.ph18.i14.us.preheader, %.lr.ph18.i14.us
  %indvars.iv21.i15.us = phi i64 [ %indvars.iv.next22.i16.us, %.lr.ph18.i14.us ], [ 0, %.lr.ph18.i14.us.preheader ]
  %59 = getelementptr inbounds nuw i64, ptr %0, i64 %indvars.iv21.i15.us
  %60 = load i64, ptr %59, align 8, !tbaa !3
  %61 = getelementptr inbounds nuw i64, ptr @Abc_TtCofactorTest10.pCopy2, i64 %indvars.iv21.i15.us
  store i64 %60, ptr %61, align 8, !tbaa !3
  %indvars.iv.next22.i16.us = add nuw nsw i64 %indvars.iv21.i15.us, 1
  %exitcond25.not.i17.us = icmp eq i64 %indvars.iv.next22.i16.us, %wide.trip.count24.i
  br i1 %exitcond25.not.i17.us, label %Abc_TtCopy.exit18.loopexit.us, label %.lr.ph18.i14.us, !llvm.loop !23

Abc_TtCopy.exit18.loopexit.us:                    ; preds = %.lr.ph18.i14.us
  %indvars.iv.next = add nuw nsw i64 %indvars.iv, 1
  %indvars = trunc i64 %indvars.iv.next to i32
  %62 = trunc nuw nsw i64 %indvars.iv to i32
  tail call fastcc void @Abc_TtSwapVars(ptr noundef nonnull @Abc_TtCofactorTest10.pCopy2, i32 noundef %1, i32 noundef %62, i32 noundef %indvars)
  %exitcond31.not = icmp eq i64 %indvars.iv.next, %wide.trip.count
  br i1 %exitcond31.not, label %._crit_edge, label %.lr.ph18.preheader.i.us, !llvm.loop !28

Abc_TtCopy.exit18:                                ; preds = %.lr.ph, %Abc_TtCopy.exit18
  %.025 = phi i32 [ %63, %Abc_TtCopy.exit18 ], [ 0, %.lr.ph ]
  %63 = add nuw nsw i32 %.025, 1
  tail call fastcc void @Abc_TtSwapVars(ptr noundef nonnull @Abc_TtCofactorTest10.pCopy2, i32 noundef %1, i32 noundef %.025, i32 noundef %63)
  %exitcond.not = icmp eq i32 %63, %4
  br i1 %exitcond.not, label %._crit_edge, label %Abc_TtCopy.exit18, !llvm.loop !28

._crit_edge:                                      ; preds = %Abc_TtCopy.exit18, %Abc_TtCopy.exit18.loopexit.us, %3
  ret void
}